Certificate:
    Data:
        Version: 3 (0x2)
        Serial Number: 15478466820361036466 (0xd6ce8f908f4a22b2)
    Signature Algorithm: sha1WithRSAEncryption
        Issuer: C=US, ST=New York, L=Potsdam, O=Basho, CN=Basho child CA
        Validity
            Not Before: Apr 29 17:16:54 2013 GMT
            Not After : Apr 29 17:16:54 2014 GMT
        Subject: C=US, ST=New York, L=Potsdam, O=Basho, CN=site1.basho.com
        Subject Public Key Info:
            Public Key Algorithm: rsaEncryption
                Public-Key: (1024 bit)
                Modulus:
                    00:d5:55:1b:61:76:7f:67:8e:ae:73:d2:2e:e6:7a:
                    c1:8a:7c:d8:72:1b:7b:07:62:16:bc:dc:ea:7f:59:
                    71:6b:7d:04:b7:6b:60:d2:1d:c7:47:5d:28:80:64:
                    43:77:c2:66:73:51:77:23:20:d7:52:38:24:64:7e:
                    2a:61:e4:61:39:8a:03:a9:c8:98:9f:0f:27:13:d0:
                    3e:39:5a:7b:89:e2:05:1a:71:33:41:b4:77:4c:82:
                    00:83:6e:1f:1d:a7:4d:17:b8:4c:76:4d:09:3a:5f:
                    17:5f:eb:c0:bd:0b:0b:18:4b:ad:b3:6a:0f:7a:78:
                    5a:d6:a4:96:4a:a9:8f:18:23
                Exponent: 65537 (0x10001)
        X509v3 extensions:
            X509v3 Basic Constraints: 
                CA:FALSE
            Netscape Comment: 
                OpenSSL Generated Certificate
            X509v3 Subject Key Identifier: 
                4F:E8:AA:D0:AF:0A:E7:4E:DF:75:85:5D:EF:EC:27:D0:0F:71:8A:E0
            X509v3 Authority Key Identifier: 
                keyid:25:7A:8F:54:F3:F3:C6:57:09:6E:BF:98:4B:02:A2:9E:D5:6A:F3:89

    Signature Algorithm: sha1WithRSAEncryption
         36:0c:ff:d0:c2:89:24:bf:40:eb:ea:14:37:bd:95:9d:2e:90:
         b0:73:01:a4:0d:ca:a7:11:ef:b0:cd:51:06:85:bf:64:ba:d7:
         5a:d0:fd:3d:50:39:f3:57:58:2f:7f:d0:b4:d3:11:2b:5d:0d:
         b2:a8:59:74:25:09:c4:93:4f:6d:6b:b3:db:b6:1d:d7:35:db:
         33:6f:06:96:9e:9a:26:c3:90:8f:ab:66:39:a0:66:0e:4b:bc:
         15:8d:11:01:ac:6c:b3:5e:e1:3a:ae:c2:f6:b7:9f:eb:9b:4c:
         ff:16:90:74:3b:79:d5:d2:73:aa:5b:58:90:56:07:ce:d6:73:
         b1:ff
-----BEGIN CERTIFICATE-----
MIICsDCCAhmgAwIBAgIJANbOj5CPSiKyMA0GCSqGSIb3DQEBBQUAMFsxCzAJBgNV
BAYTAlVTMREwDwYDVQQIDAhOZXcgWW9yazEQMA4GA1UEBwwHUG90c2RhbTEOMAwG
A1UECgwFQmFzaG8xFzAVBgNVBAMMDkJhc2hvIGNoaWxkIENBMB4XDTEzMDQyOTE3
MTY1NFoXDTE0MDQyOTE3MTY1NFowXDELMAkGA1UEBhMCVVMxETAPBgNVBAgMCE5l
dyBZb3JrMRAwDgYDVQQHDAdQb3RzZGFtMQ4wDAYDVQQKDAVCYXNobzEYMBYGA1UE
AwwPc2l0ZTEuYmFzaG8uY29tMIGfMA0GCSqGSIb3DQEBAQUAA4GNADCBiQKBgQDV
VRthdn9njq5z0i7mesGKfNhyG3sHYha83Op/WXFrfQS3a2DSHcdHXSiAZEN3wmZz
UXcjINdSOCRkfiph5GE5igOpyJifDycT0D45WnuJ4gUacTNBtHdMggCDbh8dp00X
uEx2TQk6Xxdf68C9CwsYS62zag96eFrWpJZKqY8YIwIDAQABo3sweTAJBgNVHRME
AjAAMCwGCWCGSAGG+EIBDQQfFh1PcGVuU1NMIEdlbmVyYXRlZCBDZXJ0aWZpY2F0
ZTAdBgNVHQ4EFgQUT+iq0K8K507fdYVd7+wn0A9xiuAwHwYDVR0jBBgwFoAUJXqP
VPPzxlcJbr+YSwKintVq84kwDQYJKoZIhvcNAQEFBQADgYEANgz/0MKJJL9A6+oU
N72VnS6QsHMBpA3KpxHvsM1RBoW/ZLrXWtD9PVA581dYL3/QtNMRK10NsqhZdCUJ
xJNPbWuz27Yd1zXbM28Glp6aJsOQj6tmOaBmDku8FY0RAaxss17hOq7C9ref65tM
/xaQdDt51dJzqltYkFYHztZzsf8=
-----END CERTIFICATE-----
