Certificate:
    Data:
        Version: 3 (0x2)
        Serial Number: 15478466820361036467 (0xd6ce8f908f4a22b3)
    Signature Algorithm: sha1WithRSAEncryption
        Issuer: C=US, ST=New York, L=Potsdam, O=Basho, CN=Basho child CA
        Validity
            Not Before: Apr 29 17:17:44 2013 GMT
            Not After : Apr 29 17:17:44 2014 GMT
        Subject: C=US, ST=New York, L=Potsdam, O=Basho, CN=site2.basho.com
        Subject Public Key Info:
            Public Key Algorithm: rsaEncryption
                Public-Key: (1024 bit)
                Modulus:
                    00:c7:ab:df:cc:06:eb:ec:22:51:bd:81:11:ae:c5:
                    b9:df:01:d7:eb:81:77:04:6c:c3:2d:e7:e2:1b:b2:
                    b2:89:2d:5b:e3:68:a2:3f:2a:e4:ec:25:9e:1f:8e:
                    f6:f0:e9:28:09:5f:54:3d:06:72:0a:ea:a7:10:c5:
                    7b:e6:35:9d:1f:3c:49:0e:b5:5f:a4:2a:04:32:7b:
                    87:30:91:e8:e7:2f:75:74:1f:6e:7a:de:98:91:ae:
                    1e:e2:b8:d8:9e:90:c2:a3:81:bd:54:1b:6a:2e:36:
                    cc:70:e0:77:cb:86:3e:3b:bf:64:28:5c:cb:6a:03:
                    92:af:af:f5:05:be:a7:16:c7
                Exponent: 65537 (0x10001)
        X509v3 extensions:
            X509v3 Basic Constraints: 
                CA:FALSE
            Netscape Comment: 
                OpenSSL Generated Certificate
            X509v3 Subject Key Identifier: 
                F1:2A:C8:30:55:2B:DB:3B:B1:E7:D2:24:1F:37:B0:35:3E:6A:D4:F2
            X509v3 Authority Key Identifier: 
                keyid:25:7A:8F:54:F3:F3:C6:57:09:6E:BF:98:4B:02:A2:9E:D5:6A:F3:89

    Signature Algorithm: sha1WithRSAEncryption
         2d:6d:ba:49:9a:42:38:76:30:d4:7e:f0:a6:f3:50:ff:3d:54:
         8f:eb:65:05:5f:0b:a1:99:b3:a3:e4:6c:db:e0:50:a2:64:f0:
         d4:58:0b:e5:34:a5:e7:9b:66:f0:27:fd:79:69:e2:0c:4f:3e:
         e1:3c:f0:e3:91:63:5d:a0:5d:94:b4:4e:5c:4b:51:6b:c9:52:
         c1:96:48:68:c8:ba:eb:c0:af:9d:ec:b7:af:2b:40:ce:2c:0b:
         13:02:6e:de:b8:18:7f:4d:40:86:0b:a5:ef:df:7a:16:a4:0b:
         bb:1a:75:f1:3c:70:64:85:67:46:f9:14:4b:14:ec:f1:bc:8c:
         1b:23
-----BEGIN CERTIFICATE-----
MIICsDCCAhmgAwIBAgIJANbOj5CPSiKzMA0GCSqGSIb3DQEBBQUAMFsxCzAJBgNV
BAYTAlVTMREwDwYDVQQIDAhOZXcgWW9yazEQMA4GA1UEBwwHUG90c2RhbTEOMAwG
A1UECgwFQmFzaG8xFzAVBgNVBAMMDkJhc2hvIGNoaWxkIENBMB4XDTEzMDQyOTE3
MTc0NFoXDTE0MDQyOTE3MTc0NFowXDELMAkGA1UEBhMCVVMxETAPBgNVBAgMCE5l
dyBZb3JrMRAwDgYDVQQHDAdQb3RzZGFtMQ4wDAYDVQQKDAVCYXNobzEYMBYGA1UE
AwwPc2l0ZTIuYmFzaG8uY29tMIGfMA0GCSqGSIb3DQEBAQUAA4GNADCBiQKBgQDH
q9/MBuvsIlG9gRGuxbnfAdfrgXcEbMMt5+IbsrKJLVvjaKI/KuTsJZ4fjvbw6SgJ
X1Q9BnIK6qcQxXvmNZ0fPEkOtV+kKgQye4cwkejnL3V0H2563piRrh7iuNiekMKj
gb1UG2ouNsxw4HfLhj47v2QoXMtqA5Kvr/UFvqcWxwIDAQABo3sweTAJBgNVHRME
AjAAMCwGCWCGSAGG+EIBDQQfFh1PcGVuU1NMIEdlbmVyYXRlZCBDZXJ0aWZpY2F0
ZTAdBgNVHQ4EFgQU8SrIMFUr2zux59IkHzewNT5q1PIwHwYDVR0jBBgwFoAUJXqP
VPPzxlcJbr+YSwKintVq84kwDQYJKoZIhvcNAQEFBQADgYEALW26SZpCOHYw1H7w
pvNQ/z1Uj+tlBV8LoZmzo+Rs2+BQomTw1FgL5TSl55tm8Cf9eWniDE8+4Tzw45Fj
XaBdlLROXEtRa8lSwZZIaMi668Cvney3rytAziwLEwJu3rgYf01Ahgul7996FqQL
uxp18TxwZIVnRvkUSxTs8byMGyM=
-----END CERTIFICATE-----
